target datalayout = "e-m:e-p270:32:32-p271:32:32-p272:64:64-i64:64-i128:128-f80:128-n8:16:32:64-S128"
target triple = "x86_64-pc-linux-gnu"

%struct.test_fixture = type { ptr, ptr, ptr, i32, i32, ptr }

@.str.14 = private unnamed_addr constant [34 x i8] c"../openssl/test/cmp_client_test.c\00", align 1
@.str.58 = private unnamed_addr constant [39 x i8] c"OSSL_CMP_CTX_get_status(fixt->cmp_ctx)\00", align 1
@.str.59 = private unnamed_addr constant [31 x i8] c"OSSL_CMP_PKISTATUS_unspecified\00", align 1
@.str.60 = private unnamed_addr constant [36 x i8] c"OSSL_CMP_exec_RR_ses(fixt->cmp_ctx)\00", align 1
@.str.61 = private unnamed_addr constant [46 x i8] c"fixt->expected == OSSL_CMP_PKISTATUS_accepted\00", align 1
@.str.62 = private unnamed_addr constant [15 x i8] c"fixt->expected\00", align 1

; Function Attrs: nounwind uwtable
define internal i32 @execute_exec_RR_ses_test(ptr noundef %0) #0 {
  %2 = alloca ptr, align 8
  store ptr %0, ptr %2, align 8, !tbaa !17
  %3 = load ptr, ptr %2, align 8, !tbaa !17
  %4 = getelementptr inbounds nuw %struct.test_fixture, ptr %3, i32 0, i32 1
  %5 = load ptr, ptr %4, align 8, !tbaa !29
  %6 = call i32 @OSSL_CMP_CTX_get_status(ptr noundef %5)
  %7 = call i32 @test_int_eq(ptr noundef @.str.14, i32 noundef 95, ptr noundef @.str.58, ptr noundef @.str.59, i32 noundef %6, i32 noundef -1)
  %8 = icmp ne i32 %7, 0
  br i1 %8, label %9, label %31

9:                                                ; preds = %1
  %10 = load ptr, ptr %2, align 8, !tbaa !17
  %11 = getelementptr inbounds nuw %struct.test_fixture, ptr %10, i32 0, i32 1
  %12 = load ptr, ptr %11, align 8, !tbaa !29
  %13 = call i32 @OSSL_CMP_exec_RR_ses(ptr noundef %12)
  %14 = load ptr, ptr %2, align 8, !tbaa !17
  %15 = getelementptr inbounds nuw %struct.test_fixture, ptr %14, i32 0, i32 4
  %16 = load i32, ptr %15, align 4, !tbaa !26
  %17 = icmp eq i32 %16, 0
  %18 = zext i1 %17 to i32
  %19 = call i32 @test_int_eq(ptr noundef @.str.14, i32 noundef 97, ptr noundef @.str.60, ptr noundef @.str.61, i32 noundef %13, i32 noundef %18)
  %20 = icmp ne i32 %19, 0
  br i1 %20, label %21, label %31

21:                                               ; preds = %9
  %22 = load ptr, ptr %2, align 8, !tbaa !17
  %23 = getelementptr inbounds nuw %struct.test_fixture, ptr %22, i32 0, i32 1
  %24 = load ptr, ptr %23, align 8, !tbaa !29
  %25 = call i32 @OSSL_CMP_CTX_get_status(ptr noundef %24)
  %26 = load ptr, ptr %2, align 8, !tbaa !17
  %27 = getelementptr inbounds nuw %struct.test_fixture, ptr %26, i32 0, i32 4
  %28 = load i32, ptr %27, align 4, !tbaa !26
  %29 = call i32 @test_int_eq(ptr noundef @.str.14, i32 noundef 98, ptr noundef @.str.58, ptr noundef @.str.62, i32 noundef %25, i32 noundef %28)
  %30 = icmp ne i32 %29, 0
  br label %31

31:                                               ; preds = %21, %9, %1
  %32 = phi i1 [ false, %9 ], [ false, %1 ], [ %30, %21 ]
  %33 = zext i1 %32 to i32
  ret i32 %33
}