; Function Attrs: nounwind uwtable
define internal fastcc range(i32 0, 2) i32 @execute_exec_RR_ses_test(ptr noundef nonnull readonly captures(none) %0) unnamed_addr #0 {
  %2 = getelementptr inbounds nuw i8, ptr %0, i64 8
  %3 = load ptr, ptr %2, align 8, !tbaa !23
  %4 = tail call i32 @OSSL_CMP_CTX_get_status(ptr noundef %3) #4
  %5 = tail call i32 @test_int_eq(ptr noundef nonnull @.str.14, i32 noundef 95, ptr noundef nonnull @.str.58, ptr noundef nonnull @.str.59, i32 noundef %4, i32 noundef -1) #4
  %.not = icmp eq i32 %5, 0
  br i1 %.not, label %21, label %6

6:                                                ; preds = %1
  %7 = load ptr, ptr %2, align 8, !tbaa !23
  %8 = tail call i32 @OSSL_CMP_exec_RR_ses(ptr noundef %7) #4
  %9 = getelementptr inbounds nuw i8, ptr %0, i64 28
  %10 = load i32, ptr %9, align 4, !tbaa !17
  %11 = icmp eq i32 %10, 0
  %12 = zext i1 %11 to i32
  %13 = tail call i32 @test_int_eq(ptr noundef nonnull @.str.14, i32 noundef 97, ptr noundef nonnull @.str.60, ptr noundef nonnull @.str.61, i32 noundef %8, i32 noundef %12) #4
  %.not5 = icmp eq i32 %13, 0
  br i1 %.not5, label %21, label %14

14:                                               ; preds = %6
  %15 = load ptr, ptr %2, align 8, !tbaa !23
  %16 = tail call i32 @OSSL_CMP_CTX_get_status(ptr noundef %15) #4
  %17 = load i32, ptr %9, align 4, !tbaa !17
  %18 = tail call i32 @test_int_eq(ptr noundef nonnull @.str.14, i32 noundef 98, ptr noundef nonnull @.str.58, ptr noundef nonnull @.str.62, i32 noundef %16, i32 noundef %17) #4
  %19 = icmp ne i32 %18, 0
  %20 = zext i1 %19 to i32
  br label %21

21:                                               ; preds = %14, %6, %1
  %22 = phi i32 [ 0, %6 ], [ 0, %1 ], [ %20, %14 ]
  ret i32 %22
}